target datalayout = "e-m:e-p270:32:32-p271:32:32-p272:64:64-i64:64-i128:128-f80:128-n8:16:32:64-S128"
target triple = "x86_64-pc-linux-gnu"

%struct.lexbor_array_obj_t = type { ptr, i64, i64, i64 }

; Function Attrs: nounwind uwtable
define hidden ptr @lexbor_array_obj_expand(ptr noundef %0, i64 noundef %1) #0 {
  %3 = alloca ptr, align 8
  %4 = alloca ptr, align 8
  %5 = alloca i64, align 8
  %6 = alloca ptr, align 8
  %7 = alloca i64, align 8
  store ptr %0, ptr %4, align 8
  store i64 %1, ptr %5, align 8
  %8 = load ptr, ptr %4, align 8
  %9 = getelementptr inbounds %struct.lexbor_array_obj_t, ptr %8, i32 0, i32 2
  %10 = load i64, ptr %9, align 8
  %11 = load i64, ptr %5, align 8
  %12 = sub i64 -1, %11
  %13 = icmp ugt i64 %10, %12
  br i1 %13, label %14, label %15

14:                                               ; preds = %2
  store ptr null, ptr %3, align 8
  br label %42

15:                                               ; preds = %2
  %16 = load ptr, ptr %4, align 8
  %17 = getelementptr inbounds %struct.lexbor_array_obj_t, ptr %16, i32 0, i32 2
  %18 = load i64, ptr %17, align 8
  %19 = load i64, ptr %5, align 8
  %20 = add i64 %18, %19
  store i64 %20, ptr %7, align 8
  %21 = load ptr, ptr %4, align 8
  %22 = getelementptr inbounds %struct.lexbor_array_obj_t, ptr %21, i32 0, i32 0
  %23 = load ptr, ptr %22, align 8
  %24 = load i64, ptr %7, align 8
  %25 = load ptr, ptr %4, align 8
  %26 = getelementptr inbounds %struct.lexbor_array_obj_t, ptr %25, i32 0, i32 3
  %27 = load i64, ptr %26, align 8
  %28 = mul i64 %24, %27
  %29 = mul i64 8, %28
  %30 = call ptr @lexbor_realloc(ptr noundef %23, i64 noundef %29)
  store ptr %30, ptr %6, align 8
  %31 = load ptr, ptr %6, align 8
  %32 = icmp eq ptr %31, null
  br i1 %32, label %33, label %34

33:                                               ; preds = %15
  store ptr null, ptr %3, align 8
  br label %42

34:                                               ; preds = %15
  %35 = load ptr, ptr %6, align 8
  %36 = load ptr, ptr %4, align 8
  %37 = getelementptr inbounds %struct.lexbor_array_obj_t, ptr %36, i32 0, i32 0
  store ptr %35, ptr %37, align 8
  %38 = load i64, ptr %7, align 8
  %39 = load ptr, ptr %4, align 8
  %40 = getelementptr inbounds %struct.lexbor_array_obj_t, ptr %39, i32 0, i32 1
  store i64 %38, ptr %40, align 8
  %41 = load ptr, ptr %6, align 8
  store ptr %41, ptr %3, align 8
  br label %42

42:                                               ; preds = %34, %33, %14
  %43 = load ptr, ptr %3, align 8
  ret ptr %43
}

; Function Attrs: nounwind uwtable
define hidden ptr @lexbor_array_obj_push_wo_cls(ptr noundef %0) #0 {
  %2 = alloca ptr, align 8
  %3 = alloca ptr, align 8
  %4 = alloca ptr, align 8
  store ptr %0, ptr %3, align 8
  %5 = load ptr, ptr %3, align 8
  %6 = getelementptr inbounds %struct.lexbor_array_obj_t, ptr %5, i32 0, i32 2
  %7 = load i64, ptr %6, align 8
  %8 = load ptr, ptr %3, align 8
  %9 = getelementptr inbounds %struct.lexbor_array_obj_t, ptr %8, i32 0, i32 1
  %10 = load i64, ptr %9, align 8
  %11 = icmp uge i64 %7, %10
  br i1 %11, label %12, label %18

12:                                               ; preds = %1
  %13 = load ptr, ptr %3, align 8
  %14 = call ptr @lexbor_array_obj_expand(ptr noundef %13, i64 noundef 128)
  %15 = icmp eq ptr %14, null
  br i1 %15, label %16, label %17

16:                                               ; preds = %12
  store ptr null, ptr %2, align 8
  br label %35

17:                                               ; preds = %12
  br label %18

18:                                               ; preds = %17, %1
  %19 = load ptr, ptr %3, align 8
  %20 = getelementptr inbounds %struct.lexbor_array_obj_t, ptr %19, i32 0, i32 0
  %21 = load ptr, ptr %20, align 8
  %22 = load ptr, ptr %3, align 8
  %23 = getelementptr inbounds %struct.lexbor_array_obj_t, ptr %22, i32 0, i32 2
  %24 = load i64, ptr %23, align 8
  %25 = load ptr, ptr %3, align 8
  %26 = getelementptr inbounds %struct.lexbor_array_obj_t, ptr %25, i32 0, i32 3
  %27 = load i64, ptr %26, align 8
  %28 = mul i64 %24, %27
  %29 = getelementptr inbounds i8, ptr %21, i64 %28
  store ptr %29, ptr %4, align 8
  %30 = load ptr, ptr %3, align 8
  %31 = getelementptr inbounds %struct.lexbor_array_obj_t, ptr %30, i32 0, i32 2
  %32 = load i64, ptr %31, align 8
  %33 = add i64 %32, 1
  store i64 %33, ptr %31, align 8
  %34 = load ptr, ptr %4, align 8
  store ptr %34, ptr %2, align 8
  br label %35

35:                                               ; preds = %18, %16
  %36 = load ptr, ptr %2, align 8
  ret ptr %36
}